target datalayout = "e-m:e-p270:32:32-p271:32:32-p272:64:64-i64:64-i128:128-f80:128-n8:16:32:64-S128"
target triple = "x86_64-pc-linux-gnu"

%"class.Ipopt::SmartPtr.4" = type { ptr }
%"class.Ipopt::AlgorithmStrategyObject" = type <{ %"class.Ipopt::ReferencedObject.base", [4 x i8], %"class.Ipopt::SmartPtr", %"class.Ipopt::SmartPtr.0", %"class.Ipopt::SmartPtr.1", %"class.Ipopt::SmartPtr.2", i8, [7 x i8] }>
%"class.Ipopt::ReferencedObject.base" = type <{ ptr, i32 }>
%"class.Ipopt::SmartPtr" = type { ptr }
%"class.Ipopt::SmartPtr.0" = type { ptr }
%"class.Ipopt::SmartPtr.1" = type { ptr }
%"class.Ipopt::SmartPtr.2" = type { ptr }
%"class.Ipopt::IpoptData" = type { %"class.Ipopt::ReferencedObject.base", %"class.Ipopt::SmartPtr.3", %"class.Ipopt::SmartPtr.3", %"class.Ipopt::SmartPtr.4", %"class.Ipopt::SmartPtr.3", i8, %"class.Ipopt::SmartPtr.3", i8, i32, double, i8, double, i8, i8, i8, double, i8, i8, double, double, i8, double, i32, i8, %"class.std::__cxx11::basic_string", double, i32, %"class.Ipopt::SmartPtr.5", %"class.Ipopt::TimingStatistics", %"class.Ipopt::SmartPtr.6", double, double, double, double }
%"class.Ipopt::SmartPtr.3" = type { ptr }
%"class.std::__cxx11::basic_string" = type { %"struct.std::__cxx11::basic_string<char>::_Alloc_hider", i64, %union.anon }
%"struct.std::__cxx11::basic_string<char>::_Alloc_hider" = type { ptr }
%union.anon = type { i64, [8 x i8] }
%"class.Ipopt::SmartPtr.5" = type { ptr }
%"class.Ipopt::TimingStatistics" = type { %"class.Ipopt::ReferencedObject.base", [4 x i8], %"class.Ipopt::TimedTask", %"class.Ipopt::TimedTask", %"class.Ipopt::TimedTask", %"class.Ipopt::TimedTask", %"class.Ipopt::TimedTask", %"class.Ipopt::TimedTask", %"class.Ipopt::TimedTask", %"class.Ipopt::TimedTask", %"class.Ipopt::TimedTask", %"class.Ipopt::TimedTask", %"class.Ipopt::TimedTask", %"class.Ipopt::TimedTask", %"class.Ipopt::TimedTask", %"class.Ipopt::TimedTask", %"class.Ipopt::TimedTask", %"class.Ipopt::TimedTask", %"class.Ipopt::TimedTask", %"class.Ipopt::TimedTask", %"class.Ipopt::TimedTask", %"class.Ipopt::TimedTask", %"class.Ipopt::TimedTask", %"class.Ipopt::TimedTask", %"class.Ipopt::TimedTask", %"class.Ipopt::TimedTask", %"class.Ipopt::TimedTask", %"class.Ipopt::TimedTask", %"class.Ipopt::TimedTask", %"class.Ipopt::TimedTask", %"class.Ipopt::TimedTask", %"class.Ipopt::TimedTask", %"class.Ipopt::TimedTask", %"class.Ipopt::TimedTask", %"class.Ipopt::TimedTask", %"class.Ipopt::TimedTask", %"class.Ipopt::TimedTask" }
%"class.Ipopt::TimedTask" = type <{ double, double, double, double, double, double, i8, i8, i8, [5 x i8] }>
%"class.Ipopt::SmartPtr.6" = type { ptr }
%"class.Ipopt::ReferencedObject" = type <{ ptr, i32, [4 x i8] }>

; Function Attrs: mustprogress nounwind uwtable
define linkonce_odr void @_ZNK5Ipopt16ReferencedObject6AddRefEPKNS_10ReferencerE(ptr noundef nonnull align 8 dereferenceable(12) %0, ptr noundef %1) #4 comdat align 2 {
  %3 = alloca ptr, align 8
  %4 = alloca ptr, align 8
  store ptr %0, ptr %3, align 8
  store ptr %1, ptr %4, align 8
  %5 = load ptr, ptr %3, align 8
  %6 = getelementptr inbounds %"class.Ipopt::ReferencedObject", ptr %5, i32 0, i32 1
  %7 = load i32, ptr %6, align 8
  %8 = add nsw i32 %7, 1
  store i32 %8, ptr %6, align 8
  ret void
}

; Function Attrs: mustprogress uwtable
define linkonce_odr noundef nonnull align 8 dereferenceable(8) ptr @_ZN5Ipopt8SmartPtrIKNS_9SymMatrixEE14SetFromRawPtr_EPS2_(ptr noundef nonnull align 8 dereferenceable(8) %0, ptr noundef %1) #5 comdat align 2 {
  %3 = alloca ptr, align 8
  %4 = alloca ptr, align 8
  store ptr %0, ptr %3, align 8
  store ptr %1, ptr %4, align 8
  %5 = load ptr, ptr %3, align 8
  %6 = load ptr, ptr %4, align 8
  %7 = icmp ne ptr %6, null
  br i1 %7, label %8, label %10

8:                                                ; preds = %2
  %9 = load ptr, ptr %4, align 8
  call void @_ZNK5Ipopt16ReferencedObject6AddRefEPKNS_10ReferencerE(ptr noundef nonnull align 8 dereferenceable(12) %9, ptr noundef %5)
  br label %10

10:                                               ; preds = %8, %2
  call void @_ZN5Ipopt8SmartPtrIKNS_9SymMatrixEE15ReleasePointer_Ev(ptr noundef nonnull align 8 dereferenceable(8) %5)
  %11 = load ptr, ptr %4, align 8
  %12 = getelementptr inbounds %"class.Ipopt::SmartPtr.4", ptr %5, i32 0, i32 0
  store ptr %11, ptr %12, align 8
  ret ptr %5
}

; Function Attrs: mustprogress nounwind uwtable
define linkonce_odr noundef ptr @_ZN5Ipopt9GetRawPtrIKNS_9SymMatrixEEEPT_RKNS_8SmartPtrIS3_EE(ptr noundef nonnull align 8 dereferenceable(8) %0) #4 comdat {
  %2 = alloca ptr, align 8
  store ptr %0, ptr %2, align 8
  %3 = load ptr, ptr %2, align 8
  %4 = getelementptr inbounds %"class.Ipopt::SmartPtr.4", ptr %3, i32 0, i32 0
  %5 = load ptr, ptr %4, align 8
  ret ptr %5
}

; Function Attrs: mustprogress nounwind uwtable
define linkonce_odr noundef i32 @_ZNK5Ipopt16ReferencedObject14ReferenceCountEv(ptr noundef nonnull align 8 dereferenceable(12) %0) #4 comdat align 2 {
  %2 = alloca ptr, align 8
  store ptr %0, ptr %2, align 8
  %3 = load ptr, ptr %2, align 8
  %4 = getelementptr inbounds %"class.Ipopt::ReferencedObject", ptr %3, i32 0, i32 1
  %5 = load i32, ptr %4, align 8
  ret i32 %5
}

; Function Attrs: mustprogress nounwind uwtable
define linkonce_odr void @_ZNK5Ipopt16ReferencedObject10ReleaseRefEPKNS_10ReferencerE(ptr noundef nonnull align 8 dereferenceable(12) %0, ptr noundef %1) #4 comdat align 2 {
  %3 = alloca ptr, align 8
  %4 = alloca ptr, align 8
  store ptr %0, ptr %3, align 8
  store ptr %1, ptr %4, align 8
  %5 = load ptr, ptr %3, align 8
  %6 = getelementptr inbounds %"class.Ipopt::ReferencedObject", ptr %5, i32 0, i32 1
  %7 = load i32, ptr %6, align 8
  %8 = add nsw i32 %7, -1
  store i32 %8, ptr %6, align 8
  ret void
}

; Function Attrs: mustprogress uwtable
define linkonce_odr noundef nonnull align 8 dereferenceable(8) ptr @_ZN5Ipopt8SmartPtrIKNS_9SymMatrixEE16SetFromSmartPtr_ERKS3_(ptr noundef nonnull align 8 dereferenceable(8) %0, ptr noundef nonnull align 8 dereferenceable(8) %1) #5 comdat align 2 {
  %3 = alloca ptr, align 8
  %4 = alloca ptr, align 8
  store ptr %0, ptr %3, align 8
  store ptr %1, ptr %4, align 8
  %5 = load ptr, ptr %3, align 8
  %6 = load ptr, ptr %4, align 8
  %7 = call noundef ptr @_ZN5Ipopt9GetRawPtrIKNS_9SymMatrixEEEPT_RKNS_8SmartPtrIS3_EE(ptr noundef nonnull align 8 dereferenceable(8) %6)
  %8 = call noundef nonnull align 8 dereferenceable(8) ptr @_ZN5Ipopt8SmartPtrIKNS_9SymMatrixEE14SetFromRawPtr_EPS2_(ptr noundef nonnull align 8 dereferenceable(8) %5, ptr noundef %7)
  ret ptr %5
}

; Function Attrs: noreturn nounwind uwtable
define linkonce_odr hidden void @__clang_call_terminate(ptr noundef %0) #6 comdat {
  %2 = call ptr @__cxa_begin_catch(ptr %0) #3
  call void @_ZSt9terminatev() #9
  unreachable
}

; Function Attrs: mustprogress uwtable
define linkonce_odr void @_ZN5Ipopt8SmartPtrIKNS_9SymMatrixEE15ReleasePointer_Ev(ptr noundef nonnull align 8 dereferenceable(8) %0) #5 comdat align 2 {
  %2 = alloca ptr, align 8
  store ptr %0, ptr %2, align 8
  %3 = load ptr, ptr %2, align 8
  %4 = getelementptr inbounds %"class.Ipopt::SmartPtr.4", ptr %3, i32 0, i32 0
  %5 = load ptr, ptr %4, align 8
  %6 = icmp ne ptr %5, null
  br i1 %6, label %7, label %24

7:                                                ; preds = %1
  %8 = getelementptr inbounds %"class.Ipopt::SmartPtr.4", ptr %3, i32 0, i32 0
  %9 = load ptr, ptr %8, align 8
  call void @_ZNK5Ipopt16ReferencedObject10ReleaseRefEPKNS_10ReferencerE(ptr noundef nonnull align 8 dereferenceable(12) %9, ptr noundef %3)
  %10 = getelementptr inbounds %"class.Ipopt::SmartPtr.4", ptr %3, i32 0, i32 0
  %11 = load ptr, ptr %10, align 8
  %12 = call noundef i32 @_ZNK5Ipopt16ReferencedObject14ReferenceCountEv(ptr noundef nonnull align 8 dereferenceable(12) %11)
  %13 = icmp eq i32 %12, 0
  br i1 %13, label %14, label %23

14:                                               ; preds = %7
  %15 = getelementptr inbounds %"class.Ipopt::SmartPtr.4", ptr %3, i32 0, i32 0
  %16 = load ptr, ptr %15, align 8
  %17 = icmp eq ptr %16, null
  br i1 %17, label %22, label %18

18:                                               ; preds = %14
  %19 = load ptr, ptr %16, align 8
  %20 = getelementptr inbounds ptr, ptr %19, i64 1
  %21 = load ptr, ptr %20, align 8
  call void %21(ptr noundef nonnull align 8 dereferenceable(80) %16) #3
  br label %22

22:                                               ; preds = %18, %14
  br label %23

23:                                               ; preds = %22, %7
  br label %24

24:                                               ; preds = %23, %1
  ret void
}

; Function Attrs: mustprogress uwtable
define linkonce_odr noundef nonnull align 8 dereferenceable(8) ptr @_ZN5Ipopt8SmartPtrIKNS_9SymMatrixEEaSERKS3_(ptr noundef nonnull align 8 dereferenceable(8) %0, ptr noundef nonnull align 8 dereferenceable(8) %1) #5 comdat align 2 {
  %3 = alloca ptr, align 8
  %4 = alloca ptr, align 8
  store ptr %0, ptr %3, align 8
  store ptr %1, ptr %4, align 8
  %5 = load ptr, ptr %3, align 8
  %6 = load ptr, ptr %4, align 8
  %7 = call noundef nonnull align 8 dereferenceable(8) ptr @_ZN5Ipopt8SmartPtrIKNS_9SymMatrixEE16SetFromSmartPtr_ERKS3_(ptr noundef nonnull align 8 dereferenceable(8) %5, ptr noundef nonnull align 8 dereferenceable(8) %6)
  ret ptr %7
}

; Function Attrs: mustprogress nounwind uwtable
define linkonce_odr noundef nonnull align 8 dereferenceable(2185) ptr @_ZNK5Ipopt8SmartPtrINS_25IpoptCalculatedQuantitiesEEdeEv(ptr noundef nonnull align 8 dereferenceable(8) %0) #4 comdat align 2 {
  %2 = alloca ptr, align 8
  store ptr %0, ptr %2, align 8
  %3 = load ptr, ptr %2, align 8
  %4 = getelementptr inbounds %"class.Ipopt::SmartPtr.2", ptr %3, i32 0, i32 0
  %5 = load ptr, ptr %4, align 8
  ret ptr %5
}

; Function Attrs: mustprogress nounwind uwtable
define linkonce_odr noundef nonnull align 8 dereferenceable(2232) ptr @_ZNK5Ipopt8SmartPtrINS_9IpoptDataEEdeEv(ptr noundef nonnull align 8 dereferenceable(8) %0) #4 comdat align 2 {
  %2 = alloca ptr, align 8
  store ptr %0, ptr %2, align 8
  %3 = load ptr, ptr %2, align 8
  %4 = getelementptr inbounds %"class.Ipopt::SmartPtr.1", ptr %3, i32 0, i32 0
  %5 = load ptr, ptr %4, align 8
  ret ptr %5
}

; Function Attrs: mustprogress nounwind uwtable
define linkonce_odr void @_ZN5Ipopt8SmartPtrIKNS_9SymMatrixEED2Ev(ptr noundef nonnull align 8 dereferenceable(8) %0) unnamed_addr #4 comdat align 2 personality ptr @__gxx_personality_v0 {
  %2 = alloca ptr, align 8
  store ptr %0, ptr %2, align 8
  %3 = load ptr, ptr %2, align 8
  invoke void @_ZN5Ipopt8SmartPtrIKNS_9SymMatrixEE15ReleasePointer_Ev(ptr noundef nonnull align 8 dereferenceable(8) %3)
          to label %4 unwind label %5

4:                                                ; preds = %1
  ret void

5:                                                ; preds = %1
  %6 = landingpad { ptr, i32 }
          catch ptr null
  %7 = extractvalue { ptr, i32 } %6, 0
  call void @__clang_call_terminate(ptr %7) #9
  unreachable
}

; Function Attrs: mustprogress uwtable
define linkonce_odr void @_ZN5Ipopt9IpoptData5Set_WENS_8SmartPtrIKNS_9SymMatrixEEE(ptr noundef nonnull align 8 dereferenceable(2232) %0, ptr noundef %1) #5 comdat align 2 {
  %3 = alloca ptr, align 8
  %4 = alloca ptr, align 8
  store ptr %0, ptr %3, align 8
  store ptr %1, ptr %4, align 8
  %5 = load ptr, ptr %3, align 8
  %6 = getelementptr inbounds %"class.Ipopt::IpoptData", ptr %5, i32 0, i32 3
  %7 = call noundef nonnull align 8 dereferenceable(8) ptr @_ZN5Ipopt8SmartPtrIKNS_9SymMatrixEEaSERKS3_(ptr noundef nonnull align 8 dereferenceable(8) %6, ptr noundef nonnull align 8 dereferenceable(8) %1)
  ret void
}

; Function Attrs: mustprogress uwtable
define linkonce_odr noundef nonnull align 8 dereferenceable(2185) ptr @_ZNK5Ipopt23AlgorithmStrategyObject4IpCqEv(ptr noundef nonnull align 8 dereferenceable(49) %0) #5 comdat align 2 {
  %2 = alloca ptr, align 8
  store ptr %0, ptr %2, align 8
  %3 = load ptr, ptr %2, align 8
  %4 = getelementptr inbounds %"class.Ipopt::AlgorithmStrategyObject", ptr %3, i32 0, i32 5
  %5 = call noundef nonnull align 8 dereferenceable(2185) ptr @_ZNK5Ipopt8SmartPtrINS_25IpoptCalculatedQuantitiesEEdeEv(ptr noundef nonnull align 8 dereferenceable(8) %4)
  ret ptr %5
}

; Function Attrs: mustprogress uwtable
define linkonce_odr noundef nonnull align 8 dereferenceable(2232) ptr @_ZNK5Ipopt23AlgorithmStrategyObject6IpDataEv(ptr noundef nonnull align 8 dereferenceable(49) %0) #5 comdat align 2 {
  %2 = alloca ptr, align 8
  store ptr %0, ptr %2, align 8
  %3 = load ptr, ptr %2, align 8
  %4 = getelementptr inbounds %"class.Ipopt::AlgorithmStrategyObject", ptr %3, i32 0, i32 4
  %5 = call noundef nonnull align 8 dereferenceable(2232) ptr @_ZNK5Ipopt8SmartPtrINS_9IpoptDataEEdeEv(ptr noundef nonnull align 8 dereferenceable(8) %4)
  ret ptr %5
}

; Function Attrs: mustprogress uwtable
define void @_ZN5Ipopt19ExactHessianUpdater13UpdateHessianEv(ptr noundef nonnull align 8 dereferenceable(49) %0) unnamed_addr #5 align 2 personality ptr @__gxx_personality_v0 {
  %2 = alloca ptr, align 8
  %3 = alloca %"class.Ipopt::SmartPtr.4", align 8
  %4 = alloca ptr, align 8
  %5 = alloca i32, align 4
  store ptr %0, ptr %2, align 8
  %6 = load ptr, ptr %2, align 8
  %7 = call noundef nonnull align 8 dereferenceable(2232) ptr @_ZNK5Ipopt23AlgorithmStrategyObject6IpDataEv(ptr noundef nonnull align 8 dereferenceable(49) %6)
  %8 = call noundef nonnull align 8 dereferenceable(2185) ptr @_ZNK5Ipopt23AlgorithmStrategyObject4IpCqEv(ptr noundef nonnull align 8 dereferenceable(49) %6)
  call void @_ZN5Ipopt25IpoptCalculatedQuantities18curr_exact_hessianEv(ptr dead_on_unwind writable sret(%"class.Ipopt::SmartPtr.4") align 8 %3, ptr noundef nonnull align 8 dereferenceable(2185) %8)
  invoke void @_ZN5Ipopt9IpoptData5Set_WENS_8SmartPtrIKNS_9SymMatrixEEE(ptr noundef nonnull align 8 dereferenceable(2232) %7, ptr noundef %3)
          to label %9 unwind label %10

9:                                                ; preds = %1
  call void @_ZN5Ipopt8SmartPtrIKNS_9SymMatrixEED2Ev(ptr noundef nonnull align 8 dereferenceable(8) %3) #3
  ret void

10:                                               ; preds = %1
  %11 = landingpad { ptr, i32 }
          cleanup
  %12 = extractvalue { ptr, i32 } %11, 0
  store ptr %12, ptr %4, align 8
  %13 = extractvalue { ptr, i32 } %11, 1
  store i32 %13, ptr %5, align 4
  call void @_ZN5Ipopt8SmartPtrIKNS_9SymMatrixEED2Ev(ptr noundef nonnull align 8 dereferenceable(8) %3) #3
  br label %14

14:                                               ; preds = %10
  %15 = load ptr, ptr %4, align 8
  %16 = load i32, ptr %5, align 4
  %17 = insertvalue { ptr, i32 } poison, ptr %15, 0
  %18 = insertvalue { ptr, i32 } %17, i32 %16, 1
  resume { ptr, i32 } %18
}