; Function Attrs: mustprogress uwtable
define void @_ZN5Ipopt19ExactHessianUpdater13UpdateHessianEv(ptr nocapture noundef nonnull readonly align 8 dereferenceable(49) %0) unnamed_addr #4 align 2 personality ptr @__gxx_personality_v0 {
  %2 = alloca %"class.Ipopt::SmartPtr.4", align 8
  %3 = getelementptr inbounds i8, ptr %0, i64 32
  %4 = load ptr, ptr %3, align 8
  %5 = getelementptr inbounds i8, ptr %0, i64 40
  %6 = load ptr, ptr %5, align 8
  call void @_ZN5Ipopt25IpoptCalculatedQuantities18curr_exact_hessianEv(ptr dead_on_unwind nonnull writable sret(%"class.Ipopt::SmartPtr.4") align 8 %2, ptr noundef nonnull align 8 dereferenceable(2185) %6)
  %7 = getelementptr inbounds i8, ptr %4, i64 32
  %8 = load ptr, ptr %2, align 8
  %.not.i.i.i.i = icmp eq ptr %8, null
  br i1 %.not.i.i.i.i, label %13, label %9

9:                                                ; preds = %1
  %10 = getelementptr inbounds i8, ptr %8, i64 8
  %11 = load i32, ptr %10, align 8
  %12 = add nsw i32 %11, 1
  store i32 %12, ptr %10, align 8
  br label %13

13:                                               ; preds = %9, %1
  %14 = load ptr, ptr %7, align 8
  %.not.i.i.i.i.i = icmp eq ptr %14, null
  br i1 %.not.i.i.i.i.i, label %27, label %15

15:                                               ; preds = %13
  %16 = getelementptr inbounds i8, ptr %14, i64 8
  %17 = load i32, ptr %16, align 8
  %18 = add nsw i32 %17, -1
  store i32 %18, ptr %16, align 8
  %19 = load ptr, ptr %7, align 8
  %20 = getelementptr inbounds i8, ptr %19, i64 8
  %21 = load i32, ptr %20, align 8
  %22 = icmp eq i32 %21, 0
  br i1 %22, label %23, label %27

23:                                               ; preds = %15
  %24 = load ptr, ptr %19, align 8
  %25 = getelementptr inbounds i8, ptr %24, i64 8
  %26 = load ptr, ptr %25, align 8
  call void %26(ptr noundef nonnull align 8 dereferenceable(80) %19) #9
  %.pre = load ptr, ptr %2, align 8
  br label %27

27:                                               ; preds = %23, %15, %13
  %28 = phi ptr [ %.pre, %23 ], [ %8, %15 ], [ %8, %13 ]
  store ptr %8, ptr %7, align 8
  %.not.i.i = icmp eq ptr %28, null
  br i1 %.not.i.i, label %_ZN5Ipopt8SmartPtrIKNS_9SymMatrixEED2Ev.exit, label %29

29:                                               ; preds = %27
  %30 = getelementptr inbounds i8, ptr %28, i64 8
  %31 = load i32, ptr %30, align 8
  %32 = add nsw i32 %31, -1
  store i32 %32, ptr %30, align 8
  %33 = icmp eq i32 %32, 0
  br i1 %33, label %34, label %_ZN5Ipopt8SmartPtrIKNS_9SymMatrixEED2Ev.exit

34:                                               ; preds = %29
  %35 = load ptr, ptr %28, align 8
  %36 = getelementptr inbounds i8, ptr %35, i64 8
  %37 = load ptr, ptr %36, align 8
  call void %37(ptr noundef nonnull align 8 dereferenceable(80) %28) #9
  br label %_ZN5Ipopt8SmartPtrIKNS_9SymMatrixEED2Ev.exit

_ZN5Ipopt8SmartPtrIKNS_9SymMatrixEED2Ev.exit:     ; preds = %27, %29, %34
  ret void
}